target datalayout = "e-m:e-p270:32:32-p271:32:32-p272:64:64-i64:64-i128:128-f80:128-n8:16:32:64-S128"
target triple = "x86_64-pc-linux-gnu"

%struct.Float4X4 = type { %union.anon }
%union.anon = type { %struct.anon }
%struct.anon = type { float, float, float, float, float, float, float, float, float, float, float, float, float, float, float, float }
%struct.SDL_Renderer = type { ptr, ptr, ptr, ptr, ptr, ptr, ptr, ptr, ptr, ptr, ptr, ptr, ptr, ptr, ptr, ptr, ptr, ptr, ptr, ptr, ptr, ptr, ptr, ptr, ptr, ptr, ptr, ptr, ptr, ptr, i32, i8, ptr, i8, i8, i8, i64, i64, ptr, %struct.SDL_RenderViewState, %struct.SDL_FPoint, i32, i32, ptr, ptr, ptr, i32, float, float, float, float, %struct.SDL_FColor, i32, i32, i32, ptr, ptr, ptr, ptr, i32, %struct.SDL_FColor, float, %struct.SDL_Rect, %struct.SDL_Rect, i8, i8, i8, i8, ptr, i64, i64, i8, ptr, ptr, i32, ptr, i8, ptr, ptr }
%struct.SDL_RenderViewState = type { i32, i32, %struct.SDL_Rect, %struct.SDL_Rect, %struct.SDL_Rect, %struct.SDL_Rect, i8, %struct.SDL_FPoint, i32, i32, i32, %struct.SDL_FRect, %struct.SDL_FRect, %struct.SDL_FPoint, %struct.SDL_FPoint, %struct.SDL_FPoint }
%struct.SDL_FRect = type { float, float, float, float }
%struct.SDL_FPoint = type { float, float }
%struct.SDL_FColor = type { float, float, float, float }
%struct.SDL_Rect = type { i32, i32, i32, i32 }
%struct.VULKAN_RenderData = type { ptr, ptr, i8, ptr, i8, ptr, %struct.VkPhysicalDeviceProperties, %struct.VkPhysicalDeviceMemoryProperties, %struct.VkPhysicalDeviceFeatures, ptr, ptr, ptr, i8, i32, i32, ptr, ptr, ptr, i32, ptr, ptr, %struct.VkSurfaceCapabilitiesKHR, ptr, i8, i32, i32, ptr, [2 x ptr], ptr, [3 x ptr], [3 x ptr], ptr, ptr, [256 x %struct.VULKAN_Buffer], %struct.VULKAN_VertexShaderConstants, ptr, ptr, ptr, ptr, i32, i32, [8 x ptr], ptr, ptr, i32, i32, i32, ptr, ptr, i8, i8, i8, i32, i32, i32, %struct.VkSurfaceFormatKHR, %struct.VkExtent2D, i32, i32, ptr, ptr, ptr, ptr, ptr, ptr, i32, ptr, ptr, i32, i32, ptr, i32, i32, ptr, i8, i8, %struct.SDL_Rect, %struct.SDL_Rect, i32, i8, %struct.Float4X4, %struct.VkComponentMapping, i32, i8 }
%struct.VkPhysicalDeviceProperties = type { i32, i32, i32, i32, i32, [256 x i8], [16 x i8], %struct.VkPhysicalDeviceLimits, %struct.VkPhysicalDeviceSparseProperties }
%struct.VkPhysicalDeviceLimits = type { i32, i32, i32, i32, i32, i32, i32, i32, i32, i32, i32, i64, i64, i32, i32, i32, i32, i32, i32, i32, i32, i32, i32, i32, i32, i32, i32, i32, i32, i32, i32, i32, i32, i32, i32, i32, i32, i32, i32, i32, i32, i32, i32, i32, i32, i32, i32, i32, i32, i32, i32, i32, [3 x i32], i32, [3 x i32], i32, i32, i32, i32, i32, float, float, i32, [2 x i32], [2 x float], i32, i64, i64, i64, i64, i32, i32, i32, i32, float, float, i32, i32, i32, i32, i32, i32, i32, i32, i32, i32, i32, i32, i32, i32, i32, i32, float, i32, i32, i32, i32, [2 x float], [2 x float], float, float, i32, i32, i64, i64, i64 }
%struct.VkPhysicalDeviceSparseProperties = type { i32, i32, i32, i32, i32 }
%struct.VkPhysicalDeviceMemoryProperties = type { i32, [32 x %struct.VkMemoryType], i32, [16 x %struct.VkMemoryHeap] }
%struct.VkMemoryType = type { i32, i32 }
%struct.VkMemoryHeap = type { i64, i32 }
%struct.VkPhysicalDeviceFeatures = type { i32, i32, i32, i32, i32, i32, i32, i32, i32, i32, i32, i32, i32, i32, i32, i32, i32, i32, i32, i32, i32, i32, i32, i32, i32, i32, i32, i32, i32, i32, i32, i32, i32, i32, i32, i32, i32, i32, i32, i32, i32, i32, i32, i32, i32, i32, i32, i32, i32, i32, i32, i32, i32, i32, i32 }
%struct.VkSurfaceCapabilitiesKHR = type { i32, i32, %struct.VkExtent2D, %struct.VkExtent2D, %struct.VkExtent2D, i32, i32, i32, i32, i32 }
%struct.VULKAN_Buffer = type { ptr, ptr, i64, ptr }
%struct.VULKAN_VertexShaderConstants = type { %struct.Float4X4, %struct.Float4X4 }
%struct.VkSurfaceFormatKHR = type { i32, i32 }
%struct.VkExtent2D = type { i32, i32 }
%struct.VkComponentMapping = type { i32, i32, i32, i32 }
%struct.SDL_Texture = type { i32, i32, i32, i32, i32, float, float, i32, i32, i32, %struct.SDL_FColor, %struct.SDL_RenderViewState, ptr, ptr, ptr, ptr, i32, %struct.SDL_Rect, ptr, i32, i32, ptr, ptr, ptr }
%struct.VULKAN_TextureData = type { %struct.VULKAN_Image, [2 x ptr], ptr, %struct.VULKAN_Buffer, %struct.SDL_Rect, i32, i32, i32, ptr, ptr, ptr, ptr }
%struct.VULKAN_Image = type { i8, ptr, ptr, ptr, i32, i32 }
%struct.VkImageSubresourceRange = type { i32, i32, i32, i32, i32 }
%struct.VkImageMemoryBarrier = type { i32, ptr, i32, i32, i32, i32, i32, i32, ptr, %struct.VkImageSubresourceRange }

@vkCmdEndRenderPass = internal global ptr null, align 8
@vkCmdPipelineBarrier = internal global ptr null, align 8
@.str.31 = private unnamed_addr constant [41 x i8] c"specified texture is not a render target\00", align 1

; Function Attrs: nounwind uwtable
define internal void @VULKAN_RecordPipelineImageBarrier(ptr noundef %0, i32 noundef %1, i32 noundef %2, i32 noundef %3, i32 noundef %4, i32 noundef %5, ptr noundef %6, ptr noundef %7) #0 {
  %9 = alloca ptr, align 8
  %10 = alloca i32, align 4
  %11 = alloca i32, align 4
  %12 = alloca i32, align 4
  %13 = alloca i32, align 4
  %14 = alloca i32, align 4
  %15 = alloca ptr, align 8
  %16 = alloca ptr, align 8
  %17 = alloca %struct.VkImageMemoryBarrier, align 8
  store ptr %0, ptr %9, align 8
  store i32 %1, ptr %10, align 4
  store i32 %2, ptr %11, align 4
  store i32 %3, ptr %12, align 4
  store i32 %4, ptr %13, align 4
  store i32 %5, ptr %14, align 4
  store ptr %6, ptr %15, align 8
  store ptr %7, ptr %16, align 8
  %18 = load ptr, ptr %9, align 8
  %19 = getelementptr inbounds nuw %struct.VULKAN_RenderData, ptr %18, i32 0, i32 28
  %20 = load ptr, ptr %19, align 8
  %21 = icmp ne ptr %20, null
  br i1 %21, label %22, label %29

22:                                               ; preds = %8
  %23 = load ptr, ptr @vkCmdEndRenderPass, align 8
  %24 = load ptr, ptr %9, align 8
  %25 = getelementptr inbounds nuw %struct.VULKAN_RenderData, ptr %24, i32 0, i32 19
  %26 = load ptr, ptr %25, align 8
  call void %23(ptr noundef %26)
  %27 = load ptr, ptr %9, align 8
  %28 = getelementptr inbounds nuw %struct.VULKAN_RenderData, ptr %27, i32 0, i32 28
  store ptr null, ptr %28, align 8
  br label %29

29:                                               ; preds = %22, %8
  call void @llvm.lifetime.start.p0(i64 72, ptr %17) #6
  call void @llvm.memset.p0.i64(ptr align 8 %17, i8 0, i64 72, i1 false)
  %30 = getelementptr inbounds nuw %struct.VkImageMemoryBarrier, ptr %17, i32 0, i32 0
  store i32 45, ptr %30, align 8
  %31 = load i32, ptr %10, align 4
  %32 = getelementptr inbounds nuw %struct.VkImageMemoryBarrier, ptr %17, i32 0, i32 2
  store i32 %31, ptr %32, align 8
  %33 = load i32, ptr %11, align 4
  %34 = getelementptr inbounds nuw %struct.VkImageMemoryBarrier, ptr %17, i32 0, i32 3
  store i32 %33, ptr %34, align 4
  %35 = load ptr, ptr %16, align 8
  %36 = load i32, ptr %35, align 4
  %37 = getelementptr inbounds nuw %struct.VkImageMemoryBarrier, ptr %17, i32 0, i32 4
  store i32 %36, ptr %37, align 8
  %38 = load i32, ptr %14, align 4
  %39 = getelementptr inbounds nuw %struct.VkImageMemoryBarrier, ptr %17, i32 0, i32 5
  store i32 %38, ptr %39, align 4
  %40 = getelementptr inbounds nuw %struct.VkImageMemoryBarrier, ptr %17, i32 0, i32 6
  store i32 -1, ptr %40, align 8
  %41 = getelementptr inbounds nuw %struct.VkImageMemoryBarrier, ptr %17, i32 0, i32 7
  store i32 -1, ptr %41, align 4
  %42 = load ptr, ptr %15, align 8
  %43 = getelementptr inbounds nuw %struct.VkImageMemoryBarrier, ptr %17, i32 0, i32 8
  store ptr %42, ptr %43, align 8
  %44 = getelementptr inbounds nuw %struct.VkImageMemoryBarrier, ptr %17, i32 0, i32 9
  %45 = getelementptr inbounds nuw %struct.VkImageSubresourceRange, ptr %44, i32 0, i32 0
  store i32 1, ptr %45, align 8
  %46 = getelementptr inbounds nuw %struct.VkImageMemoryBarrier, ptr %17, i32 0, i32 9
  %47 = getelementptr inbounds nuw %struct.VkImageSubresourceRange, ptr %46, i32 0, i32 1
  store i32 0, ptr %47, align 4
  %48 = getelementptr inbounds nuw %struct.VkImageMemoryBarrier, ptr %17, i32 0, i32 9
  %49 = getelementptr inbounds nuw %struct.VkImageSubresourceRange, ptr %48, i32 0, i32 2
  store i32 1, ptr %49, align 8
  %50 = getelementptr inbounds nuw %struct.VkImageMemoryBarrier, ptr %17, i32 0, i32 9
  %51 = getelementptr inbounds nuw %struct.VkImageSubresourceRange, ptr %50, i32 0, i32 3
  store i32 0, ptr %51, align 4
  %52 = getelementptr inbounds nuw %struct.VkImageMemoryBarrier, ptr %17, i32 0, i32 9
  %53 = getelementptr inbounds nuw %struct.VkImageSubresourceRange, ptr %52, i32 0, i32 4
  store i32 1, ptr %53, align 8
  %54 = load ptr, ptr @vkCmdPipelineBarrier, align 8
  %55 = load ptr, ptr %9, align 8
  %56 = getelementptr inbounds nuw %struct.VULKAN_RenderData, ptr %55, i32 0, i32 19
  %57 = load ptr, ptr %56, align 8
  %58 = load i32, ptr %12, align 4
  %59 = load i32, ptr %13, align 4
  call void %54(ptr noundef %57, i32 noundef %58, i32 noundef %59, i32 noundef 0, i32 noundef 0, ptr noundef null, i32 noundef 0, ptr noundef null, i32 noundef 1, ptr noundef %17)
  %60 = load i32, ptr %14, align 4
  %61 = load ptr, ptr %16, align 8
  store i32 %60, ptr %61, align 4
  call void @llvm.lifetime.end.p0(i64 72, ptr %17) #6
  ret void
}

; Function Attrs: nounwind uwtable
define internal zeroext i1 @VULKAN_SetRenderTarget(ptr noundef %0, ptr noundef %1) #0 {
  %3 = alloca i1, align 1
  %4 = alloca ptr, align 8
  %5 = alloca ptr, align 8
  %6 = alloca ptr, align 8
  %7 = alloca ptr, align 8
  %8 = alloca i32, align 4
  store ptr %0, ptr %4, align 8
  store ptr %1, ptr %5, align 8
  call void @llvm.lifetime.start.p0(i64 8, ptr %6) #6
  %9 = load ptr, ptr %4, align 8
  %10 = getelementptr inbounds nuw %struct.SDL_Renderer, ptr %9, i32 0, i32 77
  %11 = load ptr, ptr %10, align 8
  store ptr %11, ptr %6, align 8
  call void @llvm.lifetime.start.p0(i64 8, ptr %7) #6
  store ptr null, ptr %7, align 8
  %12 = load ptr, ptr %6, align 8
  call void @VULKAN_EnsureCommandBuffer(ptr noundef %12)
  %13 = load ptr, ptr %5, align 8
  %14 = icmp ne ptr %13, null
  br i1 %14, label %36, label %15

15:                                               ; preds = %2
  %16 = load ptr, ptr %6, align 8
  %17 = getelementptr inbounds nuw %struct.VULKAN_RenderData, ptr %16, i32 0, i32 73
  %18 = load ptr, ptr %17, align 8
  %19 = icmp ne ptr %18, null
  br i1 %19, label %20, label %33

20:                                               ; preds = %15
  %21 = load ptr, ptr %6, align 8
  %22 = load ptr, ptr %6, align 8
  %23 = getelementptr inbounds nuw %struct.VULKAN_RenderData, ptr %22, i32 0, i32 73
  %24 = load ptr, ptr %23, align 8
  %25 = getelementptr inbounds nuw %struct.VULKAN_TextureData, ptr %24, i32 0, i32 0
  %26 = getelementptr inbounds nuw %struct.VULKAN_Image, ptr %25, i32 0, i32 1
  %27 = load ptr, ptr %26, align 8
  %28 = load ptr, ptr %6, align 8
  %29 = getelementptr inbounds nuw %struct.VULKAN_RenderData, ptr %28, i32 0, i32 73
  %30 = load ptr, ptr %29, align 8
  %31 = getelementptr inbounds nuw %struct.VULKAN_TextureData, ptr %30, i32 0, i32 0
  %32 = getelementptr inbounds nuw %struct.VULKAN_Image, ptr %31, i32 0, i32 4
  call void @VULKAN_RecordPipelineImageBarrier(ptr noundef %21, i32 noundef 4512, i32 noundef 32, i32 noundef 5248, i32 noundef 128, i32 noundef 5, ptr noundef %27, ptr noundef %32)
  br label %33

33:                                               ; preds = %20, %15
  %34 = load ptr, ptr %6, align 8
  %35 = getelementptr inbounds nuw %struct.VULKAN_RenderData, ptr %34, i32 0, i32 73
  store ptr null, ptr %35, align 8
  store i1 true, ptr %3, align 1
  store i32 1, ptr %8, align 4
  br label %63

36:                                               ; preds = %2
  %37 = load ptr, ptr %5, align 8
  %38 = getelementptr inbounds nuw %struct.SDL_Texture, ptr %37, i32 0, i32 21
  %39 = load ptr, ptr %38, align 8
  store ptr %39, ptr %7, align 8
  %40 = load ptr, ptr %7, align 8
  %41 = getelementptr inbounds nuw %struct.VULKAN_TextureData, ptr %40, i32 0, i32 0
  %42 = getelementptr inbounds nuw %struct.VULKAN_Image, ptr %41, i32 0, i32 2
  %43 = load ptr, ptr %42, align 8
  %44 = icmp eq ptr %43, null
  br i1 %44, label %45, label %47

45:                                               ; preds = %36
  %46 = call zeroext i1 (ptr, ...) @SDL_SetError_REAL(ptr noundef @.str.31)
  store i1 %46, ptr %3, align 1
  store i32 1, ptr %8, align 4
  br label %63

47:                                               ; preds = %36
  %48 = load ptr, ptr %7, align 8
  %49 = load ptr, ptr %6, align 8
  %50 = getelementptr inbounds nuw %struct.VULKAN_RenderData, ptr %49, i32 0, i32 73
  store ptr %48, ptr %50, align 8
  %51 = load ptr, ptr %6, align 8
  %52 = load ptr, ptr %6, align 8
  %53 = getelementptr inbounds nuw %struct.VULKAN_RenderData, ptr %52, i32 0, i32 73
  %54 = load ptr, ptr %53, align 8
  %55 = getelementptr inbounds nuw %struct.VULKAN_TextureData, ptr %54, i32 0, i32 0
  %56 = getelementptr inbounds nuw %struct.VULKAN_Image, ptr %55, i32 0, i32 1
  %57 = load ptr, ptr %56, align 8
  %58 = load ptr, ptr %6, align 8
  %59 = getelementptr inbounds nuw %struct.VULKAN_RenderData, ptr %58, i32 0, i32 73
  %60 = load ptr, ptr %59, align 8
  %61 = getelementptr inbounds nuw %struct.VULKAN_TextureData, ptr %60, i32 0, i32 0
  %62 = getelementptr inbounds nuw %struct.VULKAN_Image, ptr %61, i32 0, i32 4
  call void @VULKAN_RecordPipelineImageBarrier(ptr noundef %51, i32 noundef 4512, i32 noundef 4512, i32 noundef 5248, i32 noundef 5248, i32 noundef 2, ptr noundef %57, ptr noundef %62)
  store i1 true, ptr %3, align 1
  store i32 1, ptr %8, align 4
  br label %63

63:                                               ; preds = %47, %45, %33
  call void @llvm.lifetime.end.p0(i64 8, ptr %7) #6
  call void @llvm.lifetime.end.p0(i64 8, ptr %6) #6
  %64 = load i1, ptr %3, align 1
  ret i1 %64
}