; Function Attrs: nounwind uwtable
define internal zeroext i1 @VULKAN_SetRenderTarget(ptr noundef readonly captures(none) %0, ptr noundef readonly captures(address_is_null) %1) #0 {
  %3 = alloca %struct.VkImageMemoryBarrier, align 8
  %4 = alloca %struct.VkImageMemoryBarrier, align 8
  %5 = getelementptr inbounds nuw i8, ptr %0, i64 696
  %6 = load ptr, ptr %5, align 8
  tail call fastcc void @VULKAN_EnsureCommandBuffer(ptr noundef %6)
  %.not = icmp eq ptr %1, null
  br i1 %.not, label %7, label %35

7:                                                ; preds = %2
  %8 = getelementptr inbounds nuw i8, ptr %6, i64 10488
  %9 = load ptr, ptr %8, align 8
  %.not18 = icmp eq ptr %9, null
  br i1 %.not18, label %34, label %10

10:                                               ; preds = %7
  %11 = getelementptr inbounds nuw i8, ptr %9, i64 8
  %12 = load ptr, ptr %11, align 8
  %13 = getelementptr inbounds nuw i8, ptr %9, i64 32
  %14 = getelementptr inbounds nuw i8, ptr %6, i64 1808
  %15 = load ptr, ptr %14, align 8
  %.not.i = icmp eq ptr %15, null
  br i1 %.not.i, label %VULKAN_RecordPipelineImageBarrier.exit, label %16

16:                                               ; preds = %10
  %17 = load ptr, ptr @vkCmdEndRenderPass, align 8
  %18 = getelementptr inbounds nuw i8, ptr %6, i64 1688
  %19 = load ptr, ptr %18, align 8
  tail call void %17(ptr noundef %19) #8
  store ptr null, ptr %14, align 8
  br label %VULKAN_RecordPipelineImageBarrier.exit

VULKAN_RecordPipelineImageBarrier.exit:           ; preds = %10, %16
  call void @llvm.lifetime.start.p0(i64 72, ptr nonnull %4) #8
  call void @llvm.memset.p0.i64(ptr noundef nonnull align 8 dereferenceable(72) %4, i8 0, i64 72, i1 false)
  store i32 45, ptr %4, align 8
  %20 = getelementptr inbounds nuw i8, ptr %4, i64 16
  store i32 4512, ptr %20, align 8
  %21 = getelementptr inbounds nuw i8, ptr %4, i64 20
  store i32 32, ptr %21, align 4
  %22 = load i32, ptr %13, align 4
  %23 = getelementptr inbounds nuw i8, ptr %4, i64 24
  store i32 %22, ptr %23, align 8
  %24 = getelementptr inbounds nuw i8, ptr %4, i64 28
  store i32 5, ptr %24, align 4
  %25 = getelementptr inbounds nuw i8, ptr %4, i64 32
  store i32 -1, ptr %25, align 8
  %26 = getelementptr inbounds nuw i8, ptr %4, i64 36
  store i32 -1, ptr %26, align 4
  %27 = getelementptr inbounds nuw i8, ptr %4, i64 40
  store ptr %12, ptr %27, align 8
  %28 = getelementptr inbounds nuw i8, ptr %4, i64 48
  store i32 1, ptr %28, align 8
  %29 = getelementptr inbounds nuw i8, ptr %4, i64 56
  store i32 1, ptr %29, align 8
  %30 = getelementptr inbounds nuw i8, ptr %4, i64 64
  store i32 1, ptr %30, align 8
  %31 = load ptr, ptr @vkCmdPipelineBarrier, align 8
  %32 = getelementptr inbounds nuw i8, ptr %6, i64 1688
  %33 = load ptr, ptr %32, align 8
  call void %31(ptr noundef %33, i32 noundef 5248, i32 noundef 128, i32 noundef 0, i32 noundef 0, ptr noundef null, i32 noundef 0, ptr noundef null, i32 noundef 1, ptr noundef nonnull %4) #8
  store i32 5, ptr %13, align 4
  call void @llvm.lifetime.end.p0(i64 72, ptr nonnull %4) #8
  br label %34

34:                                               ; preds = %VULKAN_RecordPipelineImageBarrier.exit, %7
  store ptr null, ptr %8, align 8
  br label %68

35:                                               ; preds = %2
  %36 = getelementptr inbounds nuw i8, ptr %1, i64 280
  %37 = load ptr, ptr %36, align 8
  %38 = getelementptr inbounds nuw i8, ptr %37, i64 16
  %39 = load ptr, ptr %38, align 8
  %40 = icmp eq ptr %39, null
  br i1 %40, label %41, label %43

41:                                               ; preds = %35
  %42 = tail call zeroext i1 (ptr, ...) @SDL_SetError_REAL(ptr noundef nonnull @.str.31) #8
  br label %68

43:                                               ; preds = %35
  %44 = getelementptr inbounds nuw i8, ptr %6, i64 10488
  store ptr %37, ptr %44, align 8
  %45 = getelementptr inbounds nuw i8, ptr %37, i64 8
  %46 = load ptr, ptr %45, align 8
  %47 = getelementptr inbounds nuw i8, ptr %37, i64 32
  %48 = getelementptr inbounds nuw i8, ptr %6, i64 1808
  %49 = load ptr, ptr %48, align 8
  %.not.i19 = icmp eq ptr %49, null
  br i1 %.not.i19, label %VULKAN_RecordPipelineImageBarrier.exit20, label %50

50:                                               ; preds = %43
  %51 = load ptr, ptr @vkCmdEndRenderPass, align 8
  %52 = getelementptr inbounds nuw i8, ptr %6, i64 1688
  %53 = load ptr, ptr %52, align 8
  tail call void %51(ptr noundef %53) #8
  store ptr null, ptr %48, align 8
  br label %VULKAN_RecordPipelineImageBarrier.exit20

VULKAN_RecordPipelineImageBarrier.exit20:         ; preds = %43, %50
  call void @llvm.lifetime.start.p0(i64 72, ptr nonnull %3) #8
  call void @llvm.memset.p0.i64(ptr noundef nonnull align 8 dereferenceable(72) %3, i8 0, i64 72, i1 false)
  store i32 45, ptr %3, align 8
  %54 = getelementptr inbounds nuw i8, ptr %3, i64 16
  store i32 4512, ptr %54, align 8
  %55 = getelementptr inbounds nuw i8, ptr %3, i64 20
  store i32 4512, ptr %55, align 4
  %56 = load i32, ptr %47, align 4
  %57 = getelementptr inbounds nuw i8, ptr %3, i64 24
  store i32 %56, ptr %57, align 8
  %58 = getelementptr inbounds nuw i8, ptr %3, i64 28
  store i32 2, ptr %58, align 4
  %59 = getelementptr inbounds nuw i8, ptr %3, i64 32
  store i32 -1, ptr %59, align 8
  %60 = getelementptr inbounds nuw i8, ptr %3, i64 36
  store i32 -1, ptr %60, align 4
  %61 = getelementptr inbounds nuw i8, ptr %3, i64 40
  store ptr %46, ptr %61, align 8
  %62 = getelementptr inbounds nuw i8, ptr %3, i64 48
  store i32 1, ptr %62, align 8
  %63 = getelementptr inbounds nuw i8, ptr %3, i64 56
  store i32 1, ptr %63, align 8
  %64 = getelementptr inbounds nuw i8, ptr %3, i64 64
  store i32 1, ptr %64, align 8
  %65 = load ptr, ptr @vkCmdPipelineBarrier, align 8
  %66 = getelementptr inbounds nuw i8, ptr %6, i64 1688
  %67 = load ptr, ptr %66, align 8
  call void %65(ptr noundef %67, i32 noundef 5248, i32 noundef 5248, i32 noundef 0, i32 noundef 0, ptr noundef null, i32 noundef 0, ptr noundef null, i32 noundef 1, ptr noundef nonnull %3) #8
  store i32 2, ptr %47, align 4
  call void @llvm.lifetime.end.p0(i64 72, ptr nonnull %3) #8
  br label %68

68:                                               ; preds = %VULKAN_RecordPipelineImageBarrier.exit20, %41, %34
  %.0 = phi i1 [ %42, %41 ], [ true, %VULKAN_RecordPipelineImageBarrier.exit20 ], [ true, %34 ]
  ret i1 %.0
}